target datalayout = "e-m:e-p270:32:32-p271:32:32-p272:64:64-i64:64-i128:128-f80:128-n8:16:32:64-S128"
target triple = "x86_64-pc-linux-gnu"

; Function Attrs: nounwind uwtable
define hidden float @stb_perlin_ridge_noise3(float noundef %0, float noundef %1, float noundef %2, float noundef %3, float noundef %4, float noundef %5, i32 noundef %6) #0 {
  %8 = alloca float, align 4
  %9 = alloca float, align 4
  %10 = alloca float, align 4
  %11 = alloca float, align 4
  %12 = alloca float, align 4
  %13 = alloca float, align 4
  %14 = alloca i32, align 4
  %15 = alloca i32, align 4
  %16 = alloca float, align 4
  %17 = alloca float, align 4
  %18 = alloca float, align 4
  %19 = alloca float, align 4
  %20 = alloca float, align 4
  store float %0, ptr %8, align 4
  store float %1, ptr %9, align 4
  store float %2, ptr %10, align 4
  store float %3, ptr %11, align 4
  store float %4, ptr %12, align 4
  store float %5, ptr %13, align 4
  store i32 %6, ptr %14, align 4
  call void @llvm.lifetime.start.p0(i64 4, ptr %15) #19
  call void @llvm.lifetime.start.p0(i64 4, ptr %16) #19
  store float 1.000000e+00, ptr %16, align 4
  call void @llvm.lifetime.start.p0(i64 4, ptr %17) #19
  store float 1.000000e+00, ptr %17, align 4
  call void @llvm.lifetime.start.p0(i64 4, ptr %18) #19
  store float 5.000000e-01, ptr %18, align 4
  call void @llvm.lifetime.start.p0(i64 4, ptr %19) #19
  store float 0.000000e+00, ptr %19, align 4
  store i32 0, ptr %15, align 4
  br label %21

21:                                               ; preds = %60, %7
  %22 = load i32, ptr %15, align 4
  %23 = load i32, ptr %14, align 4
  %24 = icmp slt i32 %22, %23
  br i1 %24, label %25, label %63

25:                                               ; preds = %21
  call void @llvm.lifetime.start.p0(i64 4, ptr %20) #19
  %26 = load float, ptr %8, align 4
  %27 = load float, ptr %16, align 4
  %28 = fmul float %26, %27
  %29 = load float, ptr %9, align 4
  %30 = load float, ptr %16, align 4
  %31 = fmul float %29, %30
  %32 = load float, ptr %10, align 4
  %33 = load float, ptr %16, align 4
  %34 = fmul float %32, %33
  %35 = load i32, ptr %15, align 4
  %36 = trunc i32 %35 to i8
  %37 = call float @stb_perlin_noise3_internal(float noundef %28, float noundef %31, float noundef %34, i32 noundef 0, i32 noundef 0, i32 noundef 0, i8 noundef zeroext %36)
  store float %37, ptr %20, align 4
  %38 = load float, ptr %13, align 4
  %39 = load float, ptr %20, align 4
  %40 = fpext float %39 to double
  %41 = call double @llvm.fabs.f64(double %40)
  %42 = fptrunc double %41 to float
  %43 = fsub float %38, %42
  store float %43, ptr %20, align 4
  %44 = load float, ptr %20, align 4
  %45 = load float, ptr %20, align 4
  %46 = fmul float %44, %45
  store float %46, ptr %20, align 4
  %47 = load float, ptr %20, align 4
  %48 = load float, ptr %18, align 4
  %49 = fmul float %47, %48
  %50 = load float, ptr %17, align 4
  %51 = load float, ptr %19, align 4
  %52 = call float @llvm.fmuladd.f32(float %49, float %50, float %51)
  store float %52, ptr %19, align 4
  %53 = load float, ptr %20, align 4
  store float %53, ptr %17, align 4
  %54 = load float, ptr %11, align 4
  %55 = load float, ptr %16, align 4
  %56 = fmul float %55, %54
  store float %56, ptr %16, align 4
  %57 = load float, ptr %12, align 4
  %58 = load float, ptr %18, align 4
  %59 = fmul float %58, %57
  store float %59, ptr %18, align 4
  call void @llvm.lifetime.end.p0(i64 4, ptr %20) #19
  br label %60

60:                                               ; preds = %25
  %61 = load i32, ptr %15, align 4
  %62 = add nsw i32 %61, 1
  store i32 %62, ptr %15, align 4
  br label %21

63:                                               ; preds = %21
  %64 = load float, ptr %19, align 4
  call void @llvm.lifetime.end.p0(i64 4, ptr %19) #19
  call void @llvm.lifetime.end.p0(i64 4, ptr %18) #19
  call void @llvm.lifetime.end.p0(i64 4, ptr %17) #19
  call void @llvm.lifetime.end.p0(i64 4, ptr %16) #19
  call void @llvm.lifetime.end.p0(i64 4, ptr %15) #19
  ret float %64
}